; Function Attrs: mustprogress uwtable
define internal void @"_ZNSt17_Function_handlerIFNSt7__cxx1112basic_stringIcSt11char_traitsIcESaIcEEEvEZN4pbrt19ImageTileIntegrator6RenderEvE3$_0E9_M_invokeERKSt9_Any_data"(ptr noalias nonnull sret(%"class.std::__cxx11::basic_string") align 8 %agg.result, ptr nocapture nonnull readnone align 8 %__functor) #1 align 2 personality ptr @__gxx_personality_v0 {
entry:
  %0 = tail call align 4 ptr @llvm.threadlocal.address.p0(ptr align 4 @_ZZN4pbrt19ImageTileIntegrator6RenderEvE11threadPixel)
  %y.i.i.i = getelementptr inbounds i8, ptr %0, i64 4
  %1 = tail call align 4 ptr @llvm.threadlocal.address.p0(ptr align 4 @_ZZN4pbrt19ImageTileIntegrator6RenderEvE17threadSampleIndex)
  tail call void @_ZNSt7__cxx1112basic_stringIcSt11char_traitsIcESaIcEEC1Ev(ptr noundef nonnull align 8 dereferenceable(32) %agg.result) #31
  invoke void @_ZN4pbrt6detail21stringPrintfRecursiveIRiJS2_S2_S2_S2_S2_EEEvPNSt7__cxx1112basic_stringIcSt11char_traitsIcESaIcEEEPKcOT_DpOT0_(ptr noundef nonnull %agg.result, ptr noundef nonnull @.str.185, ptr noundef nonnull align 4 dereferenceable(4) %0, ptr noundef nonnull align 4 dereferenceable(4) %y.i.i.i, ptr noundef nonnull align 4 dereferenceable(4) %1, ptr noundef nonnull align 4 dereferenceable(4) %0, ptr noundef nonnull align 4 dereferenceable(4) %y.i.i.i, ptr noundef nonnull align 4 dereferenceable(4) %1)
          to label %"_ZSt10__invoke_rINSt7__cxx1112basic_stringIcSt11char_traitsIcESaIcEEERZN4pbrt19ImageTileIntegrator6RenderEvE3$_0JEENSt9enable_ifIX16is_invocable_r_vIT_T0_DpT1_EESB_E4typeEOSC_DpOSD_.exit" unwind label %lpad.i.i.i.i

lpad.i.i.i.i:                                     ; preds = %entry
  %2 = landingpad { ptr, i32 }
          cleanup
  tail call void @_ZNSt7__cxx1112basic_stringIcSt11char_traitsIcESaIcEED1Ev(ptr noundef nonnull align 8 dereferenceable(32) %agg.result) #31
  resume { ptr, i32 } %2

"_ZSt10__invoke_rINSt7__cxx1112basic_stringIcSt11char_traitsIcESaIcEEERZN4pbrt19ImageTileIntegrator6RenderEvE3$_0JEENSt9enable_ifIX16is_invocable_r_vIT_T0_DpT1_EESB_E4typeEOSC_DpOSD_.exit": ; preds = %entry
  ret void
}